target datalayout = "e-m:e-p270:32:32-p271:32:32-p272:64:64-i64:64-i128:128-f80:128-n8:16:32:64-S128"
target triple = "x86_64-pc-linux-gnu"

%struct.tng_trajectory = type { ptr, ptr, i64, ptr, ptr, ptr, ptr, ptr, ptr, i8, i8, ptr, ptr, ptr, ptr, ptr, ptr, ptr, ptr, ptr, i64, i64, i8, i64, i64, i64, double, i64, ptr, ptr, i64, i64, i64, i64, i64, %struct.tng_trajectory_frame_set, i64, i64, i64, i32, ptr, i32, ptr, ptr, ptr, double }
%struct.tng_trajectory_frame_set = type { i64, ptr, i64, i64, i64, i64, ptr, i64, i64, i64, i64, i64, i64, i64, double, i32, ptr, i32, ptr }

@stderr = external global ptr, align 8
@.str = private unnamed_addr constant [45 x i8] c"TNG library: Cannot allocate memory. %s: %d\0A\00", align 1
@.str.1 = private unnamed_addr constant [130 x i8] c"generated/home/dtcxzyw/WorkSpace/Projects/compilers/llvm-opt-benchmark/bench/gromacs/gromacs/src/external/tng_io/src/lib/tng_io.c\00", align 1

; Function Attrs: inlinehint nounwind uwtable
define internal i64 @tng_min_size(i64 noundef %0, i64 noundef %1) #4 {
  %3 = alloca i64, align 8
  %4 = alloca i64, align 8
  store i64 %0, ptr %3, align 8, !tbaa !26
  store i64 %1, ptr %4, align 8, !tbaa !26
  %5 = load i64, ptr %3, align 8, !tbaa !26
  %6 = load i64, ptr %4, align 8, !tbaa !26
  %7 = icmp ult i64 %5, %6
  br i1 %7, label %8, label %10

8:                                                ; preds = %2
  %9 = load i64, ptr %3, align 8, !tbaa !26
  br label %12

10:                                               ; preds = %2
  %11 = load i64, ptr %4, align 8, !tbaa !26
  br label %12

12:                                               ; preds = %10, %8
  %13 = phi i64 [ %9, %8 ], [ %11, %10 ]
  ret i64 %13
}

; Function Attrs: nounwind uwtable
define i32 @tng_forcefield_name_set(ptr noundef %0, ptr noundef %1) #0 {
  %3 = alloca i32, align 4
  %4 = alloca ptr, align 8
  %5 = alloca ptr, align 8
  %6 = alloca i32, align 4
  %7 = alloca i32, align 4
  store ptr %0, ptr %4, align 8, !tbaa !3
  store ptr %1, ptr %5, align 8, !tbaa !19
  call void @llvm.lifetime.start.p0(i64 4, ptr %6) #11
  %8 = load ptr, ptr %5, align 8, !tbaa !19
  %9 = call i64 @strlen(ptr noundef %8) #12
  %10 = add i64 %9, 1
  %11 = call i64 @tng_min_size(i64 noundef %10, i64 noundef 1024)
  %12 = trunc i64 %11 to i32
  store i32 %12, ptr %6, align 4, !tbaa !20
  %13 = load ptr, ptr %4, align 8, !tbaa !3
  %14 = getelementptr inbounds nuw %struct.tng_trajectory, ptr %13, i32 0, i32 12
  %15 = load ptr, ptr %14, align 8, !tbaa !148
  %16 = icmp ne ptr %15, null
  br i1 %16, label %17, label %31

17:                                               ; preds = %2
  %18 = load ptr, ptr %4, align 8, !tbaa !3
  %19 = getelementptr inbounds nuw %struct.tng_trajectory, ptr %18, i32 0, i32 12
  %20 = load ptr, ptr %19, align 8, !tbaa !148
  %21 = call i64 @strlen(ptr noundef %20) #12
  %22 = load i32, ptr %6, align 4, !tbaa !20
  %23 = zext i32 %22 to i64
  %24 = icmp ult i64 %21, %23
  br i1 %24, label %25, label %31

25:                                               ; preds = %17
  %26 = load ptr, ptr %4, align 8, !tbaa !3
  %27 = getelementptr inbounds nuw %struct.tng_trajectory, ptr %26, i32 0, i32 12
  %28 = load ptr, ptr %27, align 8, !tbaa !148
  call void @free(ptr noundef %28) #11
  %29 = load ptr, ptr %4, align 8, !tbaa !3
  %30 = getelementptr inbounds nuw %struct.tng_trajectory, ptr %29, i32 0, i32 12
  store ptr null, ptr %30, align 8, !tbaa !148
  br label %31

31:                                               ; preds = %25, %17, %2
  %32 = load ptr, ptr %4, align 8, !tbaa !3
  %33 = getelementptr inbounds nuw %struct.tng_trajectory, ptr %32, i32 0, i32 12
  %34 = load ptr, ptr %33, align 8, !tbaa !148
  %35 = icmp ne ptr %34, null
  br i1 %35, label %50, label %36

36:                                               ; preds = %31
  %37 = load i32, ptr %6, align 4, !tbaa !20
  %38 = zext i32 %37 to i64
  %39 = call noalias ptr @malloc(i64 noundef %38) #13
  %40 = load ptr, ptr %4, align 8, !tbaa !3
  %41 = getelementptr inbounds nuw %struct.tng_trajectory, ptr %40, i32 0, i32 12
  store ptr %39, ptr %41, align 8, !tbaa !148
  %42 = load ptr, ptr %4, align 8, !tbaa !3
  %43 = getelementptr inbounds nuw %struct.tng_trajectory, ptr %42, i32 0, i32 12
  %44 = load ptr, ptr %43, align 8, !tbaa !148
  %45 = icmp ne ptr %44, null
  br i1 %45, label %49, label %46

46:                                               ; preds = %36
  %47 = load ptr, ptr @stderr, align 8, !tbaa !24
  %48 = call i32 (ptr, ptr, ...) @fprintf(ptr noundef %47, ptr noundef @.str, ptr noundef @.str.1, i32 noundef 9554) #11
  store i32 2, ptr %3, align 4
  store i32 1, ptr %7, align 4
  br label %58

49:                                               ; preds = %36
  br label %50

50:                                               ; preds = %49, %31
  %51 = load ptr, ptr %4, align 8, !tbaa !3
  %52 = getelementptr inbounds nuw %struct.tng_trajectory, ptr %51, i32 0, i32 12
  %53 = load ptr, ptr %52, align 8, !tbaa !148
  %54 = load ptr, ptr %5, align 8, !tbaa !19
  %55 = load i32, ptr %6, align 4, !tbaa !20
  %56 = zext i32 %55 to i64
  %57 = call ptr @strncpy(ptr noundef %53, ptr noundef %54, i64 noundef %56) #11
  store i32 0, ptr %3, align 4
  store i32 1, ptr %7, align 4
  br label %58

58:                                               ; preds = %50, %46
  call void @llvm.lifetime.end.p0(i64 4, ptr %6) #11
  %59 = load i32, ptr %3, align 4
  ret i32 %59
}